; Function Attrs: mustprogress nofree norecurse nosync nounwind willreturn memory(argmem: read) uwtable
define dso_local range(i32 0, 2) i32 @slurm_bit_test(ptr noundef readonly captures(none) %0, i64 noundef %1) local_unnamed_addr #4 {
  %3 = ashr i64 %1, 6
  %4 = getelementptr i64, ptr %0, i64 %3
  %5 = getelementptr i8, ptr %4, i64 16
  %6 = load i64, ptr %5, align 8
  %7 = and i64 %1, 63
  %8 = lshr i64 %6, %7
  %9 = trunc i64 %8 to i32
  %10 = and i32 %9, 1
  ret i32 %10
}